target datalayout = "e-m:e-p270:32:32-p271:32:32-p272:64:64-i64:64-i128:128-f80:128-n8:16:32:64-S128"
target triple = "x86_64-pc-linux-gnu"

%struct.GCRef = type { i64 }
%struct.jit_State = type { %struct.GCtrace, ptr, ptr, ptr, ptr, ptr, ptr, i32, i32, i32, i8, i8, %struct.IRType1, i8, %struct.FoldState, ptr, i32, i32, i32, i32, i32, i32, i32, [1 x i32], [5 x %union.TValue], [3 x %union.TValue], ptr, i32, i32, i32, i32, ptr, ptr, i32, i32, i8, ptr, i32, i32, i16, [101 x i16], [258 x i32], [15 x i32], [16 x ptr], [64 x %struct.HotPenalty], i32, [16 x %struct.BPropEntry], i32, %struct.ScEvEntry, ptr, i32, i32, i32, ptr, i32, i32, ptr, ptr, ptr, i64, i64, %union.TValue, ptr, i32, i32 }
%struct.GCtrace = type { %struct.GCRef, i8, i8, i16, i32, i32, %struct.GCRef, ptr, i32, i32, ptr, ptr, %struct.GCRef, %struct.MRef, i32, i32, ptr, i32, i16, i16, i16, i16, i16, i16, i16, i8, i8, i8, i8 }
%struct.MRef = type { i64 }
%struct.IRType1 = type { i8 }
%struct.FoldState = type { %union.IRIns, [2 x %union.IRIns], [2 x %union.IRIns] }
%union.IRIns = type { %struct.GCRef }
%struct.HotPenalty = type { %struct.MRef, i16, i16 }
%struct.BPropEntry = type { i16, i16, i32 }
%struct.ScEvEntry = type { %struct.MRef, i16, i16, i16, i16, %struct.IRType1, i8 }
%union.TValue = type { i64 }
%struct.anon.2 = type { i16, i16, i16, i16 }
%struct.RecordFFData = type { ptr, i64, i32 }
%struct.GCudata = type { %struct.GCRef, i8, i8, i8, i8, %struct.GCRef, i32, %struct.GCRef, i32 }

; Function Attrs: alwaysinline nounwind uwtable
define internal void @lj_ir_set_(ptr noundef %0, i16 noundef zeroext %1, i16 noundef zeroext %2, i16 noundef zeroext %3) #1 {
  %5 = alloca ptr, align 8
  %6 = alloca i16, align 2
  %7 = alloca i16, align 2
  %8 = alloca i16, align 2
  store ptr %0, ptr %5, align 8, !tbaa !4
  store i16 %1, ptr %6, align 2, !tbaa !14
  store i16 %2, ptr %7, align 2, !tbaa !14
  store i16 %3, ptr %8, align 2, !tbaa !14
  %9 = load i16, ptr %6, align 2, !tbaa !14
  %10 = load ptr, ptr %5, align 8, !tbaa !4
  %11 = getelementptr inbounds nuw %struct.jit_State, ptr %10, i32 0, i32 14
  %12 = getelementptr inbounds nuw %struct.FoldState, ptr %11, i32 0, i32 0
  %13 = getelementptr inbounds nuw %struct.anon.2, ptr %12, i32 0, i32 2
  store i16 %9, ptr %13, align 4, !tbaa !13
  %14 = load i16, ptr %7, align 2, !tbaa !14
  %15 = load ptr, ptr %5, align 8, !tbaa !4
  %16 = getelementptr inbounds nuw %struct.jit_State, ptr %15, i32 0, i32 14
  %17 = getelementptr inbounds nuw %struct.FoldState, ptr %16, i32 0, i32 0
  %18 = getelementptr inbounds nuw %struct.anon.2, ptr %17, i32 0, i32 0
  store i16 %14, ptr %18, align 8, !tbaa !13
  %19 = load i16, ptr %8, align 2, !tbaa !14
  %20 = load ptr, ptr %5, align 8, !tbaa !4
  %21 = getelementptr inbounds nuw %struct.jit_State, ptr %20, i32 0, i32 14
  %22 = getelementptr inbounds nuw %struct.FoldState, ptr %21, i32 0, i32 0
  %23 = getelementptr inbounds nuw %struct.anon.2, ptr %22, i32 0, i32 1
  store i16 %19, ptr %23, align 2, !tbaa !13
  ret void
}

; Function Attrs: alwaysinline nounwind uwtable
define internal void @recff_sbufx_set_ptr(ptr noundef %0, i32 noundef %1, i32 noundef %2, i32 noundef %3) #1 {
  %5 = alloca ptr, align 8
  %6 = alloca i32, align 4
  %7 = alloca i32, align 4
  %8 = alloca i32, align 4
  %9 = alloca i32, align 4
  store ptr %0, ptr %5, align 8, !tbaa !4
  store i32 %1, ptr %6, align 4, !tbaa !9
  store i32 %2, ptr %7, align 4, !tbaa !9
  store i32 %3, ptr %8, align 4, !tbaa !9
  call void @llvm.lifetime.start.p0(i64 4, ptr %9) #9
  %10 = load ptr, ptr %5, align 8, !tbaa !4
  %11 = load i32, ptr %6, align 4, !tbaa !9
  %12 = trunc i32 %11 to i16
  %13 = load i32, ptr %7, align 4, !tbaa !9
  %14 = trunc i32 %13 to i16
  call void @lj_ir_set_(ptr noundef %10, i16 noundef zeroext 15881, i16 noundef zeroext %12, i16 noundef zeroext %14)
  %15 = load ptr, ptr %5, align 8, !tbaa !4
  %16 = call i32 @lj_opt_fold(ptr noundef %15)
  store i32 %16, ptr %9, align 4, !tbaa !9
  %17 = load ptr, ptr %5, align 8, !tbaa !4
  %18 = load i32, ptr %9, align 4, !tbaa !9
  %19 = trunc i32 %18 to i16
  %20 = load i32, ptr %8, align 4, !tbaa !9
  %21 = trunc i32 %20 to i16
  call void @lj_ir_set_(ptr noundef %17, i16 noundef zeroext 19721, i16 noundef zeroext %19, i16 noundef zeroext %21)
  %22 = load ptr, ptr %5, align 8, !tbaa !4
  %23 = call i32 @lj_opt_fold(ptr noundef %22)
  call void @llvm.lifetime.end.p0(i64 4, ptr %9) #9
  ret void
}

; Function Attrs: nounwind uwtable
define internal i32 @recff_tmpref(ptr noundef %0, i32 noundef %1, i32 noundef %2) #0 {
  %4 = alloca ptr, align 8
  %5 = alloca i32, align 4
  %6 = alloca i32, align 4
  store ptr %0, ptr %4, align 8, !tbaa !4
  store i32 %1, ptr %5, align 4, !tbaa !9
  store i32 %2, ptr %6, align 4, !tbaa !9
  %7 = load i32, ptr %5, align 4, !tbaa !9
  %8 = lshr i32 %7, 24
  %9 = and i32 %8, 31
  %10 = sub i32 %9, 15
  %11 = icmp ule i32 %10, 4
  br i1 %11, label %12, label %18

12:                                               ; preds = %3
  %13 = load ptr, ptr %4, align 8, !tbaa !4
  %14 = load i32, ptr %5, align 4, !tbaa !9
  %15 = trunc i32 %14 to i16
  call void @lj_ir_set_(ptr noundef %13, i16 noundef zeroext 23310, i16 noundef zeroext %15, i16 noundef zeroext 467)
  %16 = load ptr, ptr %4, align 8, !tbaa !4
  %17 = call i32 @lj_opt_fold(ptr noundef %16)
  store i32 %17, ptr %5, align 4, !tbaa !9
  br label %18

18:                                               ; preds = %12, %3
  %19 = load ptr, ptr %4, align 8, !tbaa !4
  %20 = load i32, ptr %5, align 4, !tbaa !9
  %21 = trunc i32 %20 to i16
  %22 = load i32, ptr %6, align 4, !tbaa !9
  %23 = trunc i32 %22 to i16
  call void @lj_ir_set_(ptr noundef %19, i16 noundef zeroext 16137, i16 noundef zeroext %21, i16 noundef zeroext %23)
  %24 = load ptr, ptr %4, align 8, !tbaa !4
  %25 = call i32 @lj_opt_fold(ptr noundef %24)
  ret i32 %25
}

; Function Attrs: nounwind uwtable
define internal i32 @recff_sbufx_write(ptr noundef %0, i32 noundef %1) #0 {
  %3 = alloca ptr, align 8
  %4 = alloca i32, align 4
  %5 = alloca i32, align 4
  store ptr %0, ptr %3, align 8, !tbaa !4
  store i32 %1, ptr %4, align 4, !tbaa !9
  call void @llvm.lifetime.start.p0(i64 4, ptr %5) #9
  %6 = load ptr, ptr %3, align 8, !tbaa !4
  %7 = load i32, ptr %4, align 4, !tbaa !9
  %8 = trunc i32 %7 to i16
  %9 = load ptr, ptr %3, align 8, !tbaa !4
  %10 = call i32 @lj_ir_kint64(ptr noundef %9, i64 noundef 48)
  %11 = trunc i32 %10 to i16
  call void @lj_ir_set_(ptr noundef %6, i16 noundef zeroext 10505, i16 noundef zeroext %8, i16 noundef zeroext %11)
  %12 = load ptr, ptr %3, align 8, !tbaa !4
  %13 = call i32 @lj_opt_fold(ptr noundef %12)
  store i32 %13, ptr %5, align 4, !tbaa !9
  %14 = load ptr, ptr %3, align 8, !tbaa !4
  %15 = load i32, ptr %5, align 4, !tbaa !9
  %16 = trunc i32 %15 to i16
  call void @lj_ir_set_(ptr noundef %14, i16 noundef zeroext 21769, i16 noundef zeroext %16, i16 noundef zeroext 2)
  %17 = load ptr, ptr %3, align 8, !tbaa !4
  %18 = call i32 @lj_opt_fold(ptr noundef %17)
  call void @llvm.lifetime.end.p0(i64 4, ptr %5) #9
  ret i32 %18
}

; Function Attrs: nounwind uwtable
define internal i32 @recff_sbufx_check(ptr noundef %0, ptr noundef %1, i64 noundef %2) #0 {
  %4 = alloca ptr, align 8
  %5 = alloca ptr, align 8
  %6 = alloca i64, align 8
  %7 = alloca i32, align 4
  %8 = alloca i32, align 4
  store ptr %0, ptr %4, align 8, !tbaa !4
  store ptr %1, ptr %5, align 8, !tbaa !46
  store i64 %2, ptr %6, align 8, !tbaa !60
  call void @llvm.lifetime.start.p0(i64 4, ptr %7) #9
  call void @llvm.lifetime.start.p0(i64 4, ptr %8) #9
  %9 = load ptr, ptr %4, align 8, !tbaa !4
  %10 = getelementptr inbounds nuw %struct.jit_State, ptr %9, i32 0, i32 6
  %11 = load ptr, ptr %10, align 8, !tbaa !41
  %12 = load i64, ptr %6, align 8, !tbaa !60
  %13 = getelementptr inbounds i32, ptr %11, i64 %12
  %14 = load i32, ptr %13, align 4, !tbaa !9
  store i32 %14, ptr %8, align 4, !tbaa !9
  %15 = load ptr, ptr %5, align 8, !tbaa !46
  %16 = getelementptr inbounds nuw %struct.RecordFFData, ptr %15, i32 0, i32 0
  %17 = load ptr, ptr %16, align 8, !tbaa !40
  %18 = load i64, ptr %6, align 8, !tbaa !60
  %19 = getelementptr inbounds %union.TValue, ptr %17, i64 %18
  %20 = load i64, ptr %19, align 8, !tbaa !13
  %21 = ashr i64 %20, 47
  %22 = trunc i64 %21 to i32
  %23 = icmp eq i32 %22, -13
  br i1 %23, label %24, label %38

24:                                               ; preds = %3
  %25 = load ptr, ptr %5, align 8, !tbaa !46
  %26 = getelementptr inbounds nuw %struct.RecordFFData, ptr %25, i32 0, i32 0
  %27 = load ptr, ptr %26, align 8, !tbaa !40
  %28 = load i64, ptr %6, align 8, !tbaa !60
  %29 = getelementptr inbounds %union.TValue, ptr %27, i64 %28
  %30 = getelementptr inbounds nuw %struct.GCRef, ptr %29, i32 0, i32 0
  %31 = load i64, ptr %30, align 8, !tbaa !13
  %32 = and i64 %31, 140737488355327
  %33 = inttoptr i64 %32 to ptr
  %34 = getelementptr inbounds nuw %struct.GCudata, ptr %33, i32 0, i32 3
  %35 = load i8, ptr %34, align 2, !tbaa !13
  %36 = zext i8 %35 to i32
  %37 = icmp eq i32 %36, 3
  br i1 %37, label %40, label %38

38:                                               ; preds = %24, %3
  %39 = load ptr, ptr %4, align 8, !tbaa !4
  call void @lj_trace_err(ptr noundef %39, i32 noundef 11) #10
  unreachable

40:                                               ; preds = %24
  %41 = load ptr, ptr %4, align 8, !tbaa !4
  %42 = load i32, ptr %8, align 4, !tbaa !9
  %43 = trunc i32 %42 to i16
  call void @lj_ir_set_(ptr noundef %41, i16 noundef zeroext 17680, i16 noundef zeroext %43, i16 noundef zeroext 12)
  %44 = load ptr, ptr %4, align 8, !tbaa !4
  %45 = call i32 @lj_opt_fold(ptr noundef %44)
  store i32 %45, ptr %7, align 4, !tbaa !9
  %46 = load ptr, ptr %4, align 8, !tbaa !4
  %47 = load i32, ptr %7, align 4, !tbaa !9
  %48 = trunc i32 %47 to i16
  %49 = load ptr, ptr %4, align 8, !tbaa !4
  %50 = call i32 @lj_ir_kint(ptr noundef %49, i32 noundef 3)
  %51 = trunc i32 %50 to i16
  call void @lj_ir_set_(ptr noundef %46, i16 noundef zeroext 2195, i16 noundef zeroext %48, i16 noundef zeroext %51)
  %52 = load ptr, ptr %4, align 8, !tbaa !4
  %53 = call i32 @lj_opt_fold(ptr noundef %52)
  %54 = load ptr, ptr %4, align 8, !tbaa !4
  %55 = getelementptr inbounds nuw %struct.jit_State, ptr %54, i32 0, i32 11
  store i8 1, ptr %55, align 1, !tbaa !58
  %56 = load i32, ptr %8, align 4, !tbaa !9
  call void @llvm.lifetime.end.p0(i64 4, ptr %8) #9
  call void @llvm.lifetime.end.p0(i64 4, ptr %7) #9
  ret i32 %56
}

; Function Attrs: nounwind uwtable
define internal void @recff_buffer_method_decode(ptr noundef %0, ptr noundef %1) #0 {
  %3 = alloca ptr, align 8
  %4 = alloca ptr, align 8
  %5 = alloca i32, align 4
  %6 = alloca i32, align 4
  %7 = alloca i32, align 4
  %8 = alloca i32, align 4
  %9 = alloca i32, align 4
  store ptr %0, ptr %3, align 8, !tbaa !4
  store ptr %1, ptr %4, align 8, !tbaa !46
  call void @llvm.lifetime.start.p0(i64 4, ptr %5) #9
  %10 = load ptr, ptr %3, align 8, !tbaa !4
  %11 = load ptr, ptr %4, align 8, !tbaa !46
  %12 = call i32 @recff_sbufx_check(ptr noundef %10, ptr noundef %11, i64 noundef 0)
  store i32 %12, ptr %5, align 4, !tbaa !9
  call void @llvm.lifetime.start.p0(i64 4, ptr %6) #9
  %13 = load ptr, ptr %3, align 8, !tbaa !4
  %14 = load i32, ptr %5, align 4, !tbaa !9
  %15 = call i32 @recff_sbufx_write(ptr noundef %13, i32 noundef %14)
  store i32 %15, ptr %6, align 4, !tbaa !9
  call void @llvm.lifetime.start.p0(i64 4, ptr %7) #9
  %16 = load ptr, ptr %3, align 8, !tbaa !4
  %17 = call i32 @recff_tmpref(ptr noundef %16, i32 noundef 32767, i32 noundef 2)
  store i32 %17, ptr %7, align 4, !tbaa !9
  call void @llvm.lifetime.start.p0(i64 4, ptr %8) #9
  %18 = load ptr, ptr %3, align 8, !tbaa !4
  %19 = load i32, ptr %6, align 4, !tbaa !9
  %20 = load i32, ptr %7, align 4, !tbaa !9
  %21 = call i32 (ptr, i32, ...) @lj_ir_call(ptr noundef %18, i32 noundef 27, i32 noundef %19, i32 noundef %20)
  store i32 %21, ptr %8, align 4, !tbaa !9
  call void @llvm.lifetime.start.p0(i64 4, ptr %9) #9
  %22 = load ptr, ptr %4, align 8, !tbaa !46
  %23 = getelementptr inbounds nuw %struct.RecordFFData, ptr %22, i32 0, i32 0
  %24 = load ptr, ptr %23, align 8, !tbaa !40
  %25 = getelementptr inbounds %union.TValue, ptr %24, i64 0
  %26 = getelementptr inbounds nuw %struct.GCRef, ptr %25, i32 0, i32 0
  %27 = load i64, ptr %26, align 8, !tbaa !13
  %28 = and i64 %27, 140737488355327
  %29 = inttoptr i64 %28 to ptr
  %30 = getelementptr inbounds %struct.GCudata, ptr %29, i64 1
  %31 = call i32 @lj_serialize_peektype(ptr noundef %30)
  store i32 %31, ptr %9, align 4, !tbaa !9
  %32 = load ptr, ptr %3, align 8, !tbaa !4
  %33 = load i32, ptr %7, align 4, !tbaa !9
  %34 = load i32, ptr %9, align 4, !tbaa !9
  %35 = call i32 @lj_record_vload(ptr noundef %32, i32 noundef %33, i32 noundef 0, i32 noundef %34)
  %36 = load ptr, ptr %3, align 8, !tbaa !4
  %37 = getelementptr inbounds nuw %struct.jit_State, ptr %36, i32 0, i32 6
  %38 = load ptr, ptr %37, align 8, !tbaa !41
  %39 = getelementptr inbounds i32, ptr %38, i64 0
  store i32 %35, ptr %39, align 4, !tbaa !9
  %40 = load ptr, ptr %3, align 8, !tbaa !4
  %41 = load i32, ptr %5, align 4, !tbaa !9
  %42 = load i32, ptr %8, align 4, !tbaa !9
  call void @recff_sbufx_set_ptr(ptr noundef %40, i32 noundef %41, i32 noundef 19, i32 noundef %42)
  call void @llvm.lifetime.end.p0(i64 4, ptr %9) #9
  call void @llvm.lifetime.end.p0(i64 4, ptr %8) #9
  call void @llvm.lifetime.end.p0(i64 4, ptr %7) #9
  call void @llvm.lifetime.end.p0(i64 4, ptr %6) #9
  call void @llvm.lifetime.end.p0(i64 4, ptr %5) #9
  ret void
}